target datalayout = "e-m:e-p270:32:32-p271:32:32-p272:64:64-i64:64-i128:128-f80:128-n8:16:32:64-S128"
target triple = "x86_64-unknown-linux-gnu"

%"class.icu_75::MaybeStackArray" = type <{ ptr, i32, i8, [40 x i8], [3 x i8] }>
%"class.icu_75::Formattable" = type { %"class.icu_75::UObject", %union.anon, ptr, ptr, i32, %"class.icu_75::UnicodeString" }
%"class.icu_75::UObject" = type { ptr }
%union.anon = type { %struct.anon }
%struct.anon = type { ptr, i32 }
%"class.icu_75::UnicodeString" = type { %"class.icu_75::Replaceable", %"union.icu_75::UnicodeString::StackBufferOrFields" }
%"class.icu_75::Replaceable" = type { %"class.icu_75::UObject" }
%"union.icu_75::UnicodeString::StackBufferOrFields" = type { %struct.anon.1, [32 x i8] }
%struct.anon.1 = type { i16, i32, i32, ptr }
%"class.icu_75::StringPiece" = type <{ ptr, i32, [4 x i8] }>
%"class.icu_75::CharString" = type { %"class.icu_75::MaybeStackArray", i32, [4 x i8] }

@.str = private unnamed_addr constant [1 x i8] zeroinitializer, align 1

; Function Attrs: mustprogress nounwind uwtable
define linkonce_odr void @_ZN6icu_7511StringPieceC2EPKci(ptr noundef nonnull align 8 dereferenceable(12) %this, ptr noundef %offset, i32 noundef %len) unnamed_addr #0 comdat align 2 {
entry:
  %this.addr = alloca ptr, align 8
  %offset.addr = alloca ptr, align 8
  %len.addr = alloca i32, align 4
  store ptr %this, ptr %this.addr, align 8
  store ptr %offset, ptr %offset.addr, align 8
  store i32 %len, ptr %len.addr, align 4
  %this1 = load ptr, ptr %this.addr, align 8
  %ptr_ = getelementptr inbounds %"class.icu_75::StringPiece", ptr %this1, i32 0, i32 0
  %0 = load ptr, ptr %offset.addr, align 8
  store ptr %0, ptr %ptr_, align 8
  %length_ = getelementptr inbounds %"class.icu_75::StringPiece", ptr %this1, i32 0, i32 1
  %1 = load i32, ptr %len.addr, align 4
  store i32 %1, ptr %length_, align 8
  ret void
}

; Function Attrs: mustprogress nounwind uwtable
define weak_odr noundef ptr @_ZNK6icu_7515MaybeStackArrayIcLi40EE8getAliasEv(ptr noundef nonnull align 8 dereferenceable(53) %this) #0 comdat align 2 {
entry:
  %this.addr = alloca ptr, align 8
  store ptr %this, ptr %this.addr, align 8
  %this1 = load ptr, ptr %this.addr, align 8
  %ptr = getelementptr inbounds %"class.icu_75::MaybeStackArray", ptr %this1, i32 0, i32 0
  %0 = load ptr, ptr %ptr, align 8
  ret ptr %0
}

; Function Attrs: mustprogress uwtable
define linkonce_odr { ptr, i32 } @_ZNK6icu_7510CharString13toStringPieceEv(ptr noundef nonnull align 8 dereferenceable(60) %this) #1 comdat align 2 {
entry:
  %retval = alloca %"class.icu_75::StringPiece", align 8
  %this.addr = alloca ptr, align 8
  store ptr %this, ptr %this.addr, align 8
  %this1 = load ptr, ptr %this.addr, align 8
  %buffer = getelementptr inbounds %"class.icu_75::CharString", ptr %this1, i32 0, i32 0
  %call = call noundef ptr @_ZNK6icu_7515MaybeStackArrayIcLi40EE8getAliasEv(ptr noundef nonnull align 8 dereferenceable(53) %buffer)
  %len = getelementptr inbounds %"class.icu_75::CharString", ptr %this1, i32 0, i32 1
  %0 = load i32, ptr %len, align 8
  call void @_ZN6icu_7511StringPieceC2EPKci(ptr noundef nonnull align 8 dereferenceable(12) %retval, ptr noundef %call, i32 noundef %0)
  %1 = load { ptr, i32 }, ptr %retval, align 8
  ret { ptr, i32 } %1
}

; Function Attrs: mustprogress nounwind uwtable
define internal noundef signext i8 @_ZL9U_FAILURE10UErrorCode(i32 noundef %code) #0 {
entry:
  %code.addr = alloca i32, align 4
  store i32 %code, ptr %code.addr, align 4
  %0 = load i32, ptr %code.addr, align 4
  %cmp = icmp sgt i32 %0, 0
  %conv = zext i1 %cmp to i8
  ret i8 %conv
}

; Function Attrs: mustprogress uwtable
define { ptr, i32 } @_ZN6icu_7511Formattable16getDecimalNumberER10UErrorCode(ptr noundef nonnull align 8 dereferenceable(112) %this, ptr noundef nonnull align 4 dereferenceable(4) %status) #1 align 2 {
entry:
  %retval = alloca %"class.icu_75::StringPiece", align 8
  %this.addr = alloca ptr, align 8
  %status.addr = alloca ptr, align 8
  %decimalStr = alloca ptr, align 8
  store ptr %this, ptr %this.addr, align 8
  store ptr %status, ptr %status.addr, align 8
  %this1 = load ptr, ptr %this.addr, align 8
  %0 = load ptr, ptr %status.addr, align 8
  %1 = load i32, ptr %0, align 4
  %call = call noundef signext i8 @_ZL9U_FAILURE10UErrorCode(i32 noundef %1)
  %tobool = icmp ne i8 %call, 0
  br i1 %tobool, label %if.then, label %if.end

if.then:                                          ; preds = %entry
  call void @_ZN6icu_7511StringPieceC1EPKc(ptr noundef nonnull align 8 dereferenceable(12) %retval, ptr noundef @.str)
  br label %return

if.end:                                           ; preds = %entry
  %fDecimalStr = getelementptr inbounds %"class.icu_75::Formattable", ptr %this1, i32 0, i32 2
  %2 = load ptr, ptr %fDecimalStr, align 8
  %cmp = icmp ne ptr %2, null
  br i1 %cmp, label %if.then2, label %if.end5

if.then2:                                         ; preds = %if.end
  %fDecimalStr3 = getelementptr inbounds %"class.icu_75::Formattable", ptr %this1, i32 0, i32 2
  %3 = load ptr, ptr %fDecimalStr3, align 8
  %call4 = call { ptr, i32 } @_ZNK6icu_7510CharString13toStringPieceEv(ptr noundef nonnull align 8 dereferenceable(60) %3)
  %4 = getelementptr inbounds { ptr, i32 }, ptr %retval, i32 0, i32 0
  %5 = extractvalue { ptr, i32 } %call4, 0
  store ptr %5, ptr %4, align 8
  %6 = getelementptr inbounds { ptr, i32 }, ptr %retval, i32 0, i32 1
  %7 = extractvalue { ptr, i32 } %call4, 1
  store i32 %7, ptr %6, align 8
  br label %return

if.end5:                                          ; preds = %if.end
  %8 = load ptr, ptr %status.addr, align 8
  %call6 = call noundef ptr @_ZN6icu_7511Formattable21internalGetCharStringER10UErrorCode(ptr noundef nonnull align 8 dereferenceable(112) %this1, ptr noundef nonnull align 4 dereferenceable(4) %8)
  store ptr %call6, ptr %decimalStr, align 8
  %9 = load ptr, ptr %decimalStr, align 8
  %cmp7 = icmp eq ptr %9, null
  br i1 %cmp7, label %if.then8, label %if.else

if.then8:                                         ; preds = %if.end5
  call void @_ZN6icu_7511StringPieceC1EPKc(ptr noundef nonnull align 8 dereferenceable(12) %retval, ptr noundef @.str)
  br label %return

if.else:                                          ; preds = %if.end5
  %10 = load ptr, ptr %decimalStr, align 8
  %call9 = call { ptr, i32 } @_ZNK6icu_7510CharString13toStringPieceEv(ptr noundef nonnull align 8 dereferenceable(60) %10)
  %11 = getelementptr inbounds { ptr, i32 }, ptr %retval, i32 0, i32 0
  %12 = extractvalue { ptr, i32 } %call9, 0
  store ptr %12, ptr %11, align 8
  %13 = getelementptr inbounds { ptr, i32 }, ptr %retval, i32 0, i32 1
  %14 = extractvalue { ptr, i32 } %call9, 1
  store i32 %14, ptr %13, align 8
  br label %return

return:                                           ; preds = %if.else, %if.then8, %if.then2, %if.then
  %15 = load { ptr, i32 }, ptr %retval, align 8
  ret { ptr, i32 } %15
}