; Function Attrs: mustprogress uwtable
define { ptr, i32 } @_ZN6icu_7511Formattable16getDecimalNumberER10UErrorCode(ptr nocapture noundef nonnull align 8 dereferenceable(112) %this, ptr noundef nonnull align 4 dereferenceable(4) %status) local_unnamed_addr #1 align 2 {
entry:
  %retval = alloca %"class.icu_75::StringPiece", align 8
  %0 = load i32, ptr %status, align 4
  %cmp.i = icmp slt i32 %0, 1
  br i1 %cmp.i, label %if.end, label %if.then

if.then:                                          ; preds = %entry
  call void @_ZN6icu_7511StringPieceC1EPKc(ptr noundef nonnull align 8 dereferenceable(12) %retval, ptr noundef nonnull @.str)
  br label %return

if.end:                                           ; preds = %entry
  %fDecimalStr = getelementptr inbounds i8, ptr %this, i64 24
  %1 = load ptr, ptr %fDecimalStr, align 8
  %cmp.not = icmp eq ptr %1, null
  br i1 %cmp.not, label %if.end5, label %if.then2

if.then2:                                         ; preds = %if.end
  %2 = load ptr, ptr %1, align 8
  %len.i = getelementptr inbounds i8, ptr %1, i64 56
  %3 = load i32, ptr %len.i, align 8
  store ptr %2, ptr %retval, align 8
  %4 = getelementptr inbounds i8, ptr %retval, i64 8
  store i32 %3, ptr %4, align 8
  br label %return

if.end5:                                          ; preds = %if.end
  %call6 = tail call noundef ptr @_ZN6icu_7511Formattable21internalGetCharStringER10UErrorCode(ptr noundef nonnull align 8 dereferenceable(112) %this, ptr noundef nonnull align 4 dereferenceable(4) %status)
  %cmp7 = icmp eq ptr %call6, null
  br i1 %cmp7, label %if.then8, label %if.else

if.then8:                                         ; preds = %if.end5
  call void @_ZN6icu_7511StringPieceC1EPKc(ptr noundef nonnull align 8 dereferenceable(12) %retval, ptr noundef nonnull @.str)
  br label %return

if.else:                                          ; preds = %if.end5
  %5 = load ptr, ptr %call6, align 8
  %len.i3 = getelementptr inbounds i8, ptr %call6, i64 56
  %6 = load i32, ptr %len.i3, align 8
  store ptr %5, ptr %retval, align 8
  %7 = getelementptr inbounds i8, ptr %retval, i64 8
  store i32 %6, ptr %7, align 8
  br label %return

return:                                           ; preds = %if.else, %if.then8, %if.then2, %if.then
  %.fca.0.load = load ptr, ptr %retval, align 8
  %.fca.0.insert = insertvalue { ptr, i32 } poison, ptr %.fca.0.load, 0
  %.fca.1.gep = getelementptr inbounds i8, ptr %retval, i64 8
  %.fca.1.load = load i32, ptr %.fca.1.gep, align 8
  %.fca.1.insert = insertvalue { ptr, i32 } %.fca.0.insert, i32 %.fca.1.load, 1
  ret { ptr, i32 } %.fca.1.insert
}